; Function Attrs: mustprogress uwtable
define void @_ZN4lean4name23mk_internal_unique_nameEv(ptr dead_on_unwind noalias writable sret(%"class.lean::name") align 8 %0) local_unnamed_addr #1 align 2 personality ptr @__gxx_personality_v0 {
  %2 = alloca %"class.lean::name", align 8
  %3 = load ptr, ptr @_ZN4leanL9g_next_idE, align 8, !tbaa !90
  %4 = atomicrmw add ptr %3, i32 1 seq_cst, align 4
  call void @llvm.lifetime.start.p0(i64 8, ptr nonnull %2) #19
  store ptr inttoptr (i64 1 to ptr), ptr %2, align 8, !tbaa !6
  invoke void @_ZN4lean4nameC1ERKS0_j(ptr noundef nonnull align 8 dereferenceable(8) %0, ptr noundef nonnull align 8 dereferenceable(8) %2, i32 noundef %4)
          to label %5 unwind label %19

5:                                                ; preds = %1
  %6 = load ptr, ptr %2, align 8, !tbaa !6
  %7 = ptrtoint ptr %6 to i64
  %8 = and i64 %7, 1
  %.not.i.i = icmp eq i64 %8, 0
  br i1 %.not.i.i, label %9, label %_ZN4lean10object_refD2Ev.exit

9:                                                ; preds = %5
  %10 = load i32, ptr %6, align 4, !tbaa !9
  %11 = icmp sgt i32 %10, 1
  br i1 %11, label %12, label %14, !prof !12

12:                                               ; preds = %9
  %13 = add nsw i32 %10, -1
  store i32 %13, ptr %6, align 4, !tbaa !9
  br label %_ZN4lean10object_refD2Ev.exit

14:                                               ; preds = %9
  %.not.i.i.i = icmp eq i32 %10, 0
  br i1 %.not.i.i.i, label %_ZN4lean10object_refD2Ev.exit, label %15

15:                                               ; preds = %14
  invoke void @lean_dec_ref_cold(ptr noundef nonnull %6)
          to label %_ZN4lean10object_refD2Ev.exit unwind label %16

16:                                               ; preds = %15
  %17 = landingpad { ptr, i32 }
          catch ptr null
  %18 = extractvalue { ptr, i32 } %17, 0
  call void @__clang_call_terminate(ptr %18) #20
  unreachable

_ZN4lean10object_refD2Ev.exit:                    ; preds = %5, %12, %14, %15
  call void @llvm.lifetime.end.p0(i64 8, ptr nonnull %2) #19
  ret void

19:                                               ; preds = %1
  %20 = landingpad { ptr, i32 }
          cleanup
  call void @_ZN4lean10object_refD2Ev(ptr noundef nonnull align 8 dereferenceable(8) %2) #19
  call void @llvm.lifetime.end.p0(i64 8, ptr nonnull %2) #19
  resume { ptr, i32 } %20
}